target datalayout = "e-m:e-p270:32:32-p271:32:32-p272:64:64-i64:64-i128:128-f80:128-n8:16:32:64-S128"
target triple = "x86_64-pc-linux-gnu"

%"class.llvm::SmallVectorBase" = type { ptr, i32, i32 }
%"class.llvm::ilist_iterator_w_bits" = type <{ ptr, i8, i8, [6 x i8] }>
%"class.llvm::Value" = type { i8, i8, i16, i32, ptr, ptr }
%"class.llvm::IRBuilderBase" = type { %"class.llvm::SmallVector.170", ptr, %"class.llvm::ilist_iterator_w_bits", ptr, ptr, ptr, ptr, %"class.llvm::FastMathFlags", i8, i8, i8, %"class.llvm::ArrayRef.175" }
%"class.llvm::SmallVector.170" = type { %"class.llvm::SmallVectorImpl.171", %"struct.llvm::SmallVectorStorage.174" }
%"class.llvm::SmallVectorImpl.171" = type { %"class.llvm::SmallVectorTemplateBase.172" }
%"class.llvm::SmallVectorTemplateBase.172" = type { %"class.llvm::SmallVectorTemplateCommon.173" }
%"class.llvm::SmallVectorTemplateCommon.173" = type { %"class.llvm::SmallVectorBase" }
%"struct.llvm::SmallVectorStorage.174" = type { [32 x i8] }
%"class.llvm::FastMathFlags" = type { i32 }
%"class.llvm::ArrayRef.175" = type { ptr, i64 }
%"class.llvm::Twine" = type <{ %"union.llvm::Twine::Child", %"union.llvm::Twine::Child", i8, i8, [6 x i8] }>
%"union.llvm::Twine::Child" = type { %struct.anon }
%struct.anon = type { ptr, i64 }
%"class.llvm::VectorType" = type <{ %"class.llvm::Type", ptr, i32, [4 x i8] }>
%"class.llvm::Type" = type { ptr, i32, i32, ptr }
%class.anon.478 = type { ptr, ptr, ptr }

@.str.17 = private unnamed_addr constant [1 x i8] zeroinitializer, align 1

; Function Attrs: mustprogress nounwind uwtable
define linkonce_odr hidden noundef ptr @_ZN4llvm16cast_convert_valINS_10VectorTypeEPNS_4TypeES3_E4doitEPKS2_(ptr noundef %0) #0 comdat align 2 {
  %2 = alloca ptr, align 8
  store ptr %0, ptr %2, align 8
  %3 = load ptr, ptr %2, align 8
  ret ptr %3
}

; Function Attrs: mustprogress nounwind uwtable
define linkonce_odr hidden noundef zeroext i1 @_ZNK4llvm13FastMathFlags13noSignedZerosEv(ptr noundef nonnull align 4 dereferenceable(4) %0) #0 comdat align 2 {
  %2 = alloca ptr, align 8
  store ptr %0, ptr %2, align 8
  %3 = load ptr, ptr %2, align 8
  %4 = getelementptr inbounds nuw %"class.llvm::FastMathFlags", ptr %3, i32 0, i32 0
  %5 = load i32, ptr %4, align 4
  %6 = and i32 %5, 8
  %7 = icmp ne i32 0, %6
  ret i1 %7
}

; Function Attrs: mustprogress nounwind uwtable
define linkonce_odr hidden noundef nonnull align 4 dereferenceable(4) ptr @_ZN4llvm13IRBuilderBase16getFastMathFlagsEv(ptr noundef nonnull align 8 dereferenceable(128) %0) #0 comdat align 2 {
  %2 = alloca ptr, align 8
  store ptr %0, ptr %2, align 8
  %3 = load ptr, ptr %2, align 8
  %4 = getelementptr inbounds nuw %"class.llvm::IRBuilderBase", ptr %3, i32 0, i32 7
  ret ptr %4
}

; Function Attrs: mustprogress nounwind uwtable
define dso_local noundef i32 @_ZN4llvm33getArithmeticReductionInstructionEj(i32 noundef %0) #0 {
  %2 = alloca i32, align 4
  %3 = alloca i32, align 4
  store i32 %0, ptr %3, align 4
  %4 = load i32, ptr %3, align 4
  switch i32 %4, label %14 [
    i32 374, label %5
    i32 379, label %6
    i32 372, label %7
    i32 380, label %8
    i32 373, label %9
    i32 381, label %10
    i32 386, label %11
    i32 382, label %12
    i32 383, label %12
    i32 384, label %12
    i32 385, label %12
    i32 375, label %13
    i32 377, label %13
  ]

5:                                                ; preds = %1
  store i32 14, ptr %2, align 4
  br label %15

6:                                                ; preds = %1
  store i32 18, ptr %2, align 4
  br label %15

7:                                                ; preds = %1
  store i32 13, ptr %2, align 4
  br label %15

8:                                                ; preds = %1
  store i32 17, ptr %2, align 4
  br label %15

9:                                                ; preds = %1
  store i32 28, ptr %2, align 4
  br label %15

10:                                               ; preds = %1
  store i32 29, ptr %2, align 4
  br label %15

11:                                               ; preds = %1
  store i32 30, ptr %2, align 4
  br label %15

12:                                               ; preds = %1, %1, %1, %1
  store i32 53, ptr %2, align 4
  br label %15

13:                                               ; preds = %1, %1
  store i32 54, ptr %2, align 4
  br label %15

14:                                               ; preds = %1
  unreachable

15:                                               ; preds = %13, %12, %11, %10, %9, %8, %7, %6, %5
  %16 = load i32, ptr %2, align 4
  ret i32 %16
}

; Function Attrs: mustprogress nounwind uwtable
define linkonce_odr hidden noundef ptr @_ZN4llvm8CastInfoINS_10VectorTypeEPNS_4TypeEvE6doCastERKS3_(ptr noundef nonnull align 8 dereferenceable(8) %0) #0 comdat align 2 {
  %2 = alloca ptr, align 8
  store ptr %0, ptr %2, align 8
  %3 = load ptr, ptr %2, align 8
  %4 = load ptr, ptr %3, align 8
  %5 = call noundef ptr @_ZN4llvm16cast_convert_valINS_10VectorTypeEPNS_4TypeES3_E4doitEPKS2_(ptr noundef %4)
  ret ptr %5
}

; Function Attrs: mustprogress nounwind uwtable
define internal noundef ptr @"_ZZN4llvm21createSimpleReductionERNS_13IRBuilderBaseEPNS_5ValueENS_9RecurKindEENK3$_0clEv"(ptr noundef nonnull align 8 dereferenceable(24) %0) #0 align 2 {
  %2 = alloca ptr, align 8
  %3 = alloca i32, align 4
  %4 = alloca i32, align 4
  %5 = alloca i8, align 1
  store ptr %0, ptr %2, align 8
  %6 = load ptr, ptr %2, align 8
  %7 = getelementptr inbounds nuw %class.anon.478, ptr %6, i32 0, i32 0
  %8 = load ptr, ptr %7, align 8
  %9 = load i32, ptr %8, align 4
  %10 = call noundef i32 @_ZN4llvm23getReductionIntrinsicIDENS_9RecurKindE(i32 noundef %9)
  store i32 %10, ptr %3, align 4
  %11 = load i32, ptr %3, align 4
  %12 = call noundef i32 @_ZN4llvm33getArithmeticReductionInstructionEj(i32 noundef %11)
  store i32 %12, ptr %4, align 4
  %13 = getelementptr inbounds nuw %class.anon.478, ptr %6, i32 0, i32 1
  %14 = load ptr, ptr %13, align 8
  %15 = call noundef nonnull align 4 dereferenceable(4) ptr @_ZN4llvm13IRBuilderBase16getFastMathFlagsEv(ptr noundef nonnull align 8 dereferenceable(128) %14)
  %16 = call noundef zeroext i1 @_ZNK4llvm13FastMathFlags13noSignedZerosEv(ptr noundef nonnull align 4 dereferenceable(4) %15)
  %17 = zext i1 %16 to i8
  store i8 %17, ptr %5, align 1
  %18 = load i32, ptr %4, align 4
  %19 = getelementptr inbounds nuw %class.anon.478, ptr %6, i32 0, i32 2
  %20 = load ptr, ptr %19, align 8
  %21 = load ptr, ptr %20, align 8
  %22 = load i8, ptr %5, align 1
  %23 = trunc i8 %22 to i1
  %24 = call noundef ptr @_ZN4llvm12ConstantExpr16getBinOpIdentityEjPNS_4TypeEbb(i32 noundef %18, ptr noundef %21, i1 noundef zeroext false, i1 noundef zeroext %23)
  ret ptr %24
}

; Function Attrs: mustprogress nounwind uwtable
define linkonce_odr hidden void @_ZN4llvm5TwineC2EPKc(ptr noundef nonnull align 8 dereferenceable(34) %0, ptr noundef %1) unnamed_addr #0 comdat align 2 {
  %3 = alloca ptr, align 8
  %4 = alloca ptr, align 8
  store ptr %0, ptr %3, align 8
  store ptr %1, ptr %4, align 8
  %5 = load ptr, ptr %3, align 8
  %6 = getelementptr inbounds nuw %"class.llvm::Twine", ptr %5, i32 0, i32 2
  store i8 1, ptr %6, align 8
  %7 = getelementptr inbounds nuw %"class.llvm::Twine", ptr %5, i32 0, i32 3
  store i8 1, ptr %7, align 1
  %8 = load ptr, ptr %4, align 8
  %9 = getelementptr inbounds i8, ptr %8, i64 0
  %10 = load i8, ptr %9, align 1
  %11 = sext i8 %10 to i32
  %12 = icmp ne i32 %11, 0
  br i1 %12, label %13, label %17

13:                                               ; preds = %2
  %14 = load ptr, ptr %4, align 8
  %15 = getelementptr inbounds nuw %"class.llvm::Twine", ptr %5, i32 0, i32 0
  store ptr %14, ptr %15, align 8
  %16 = getelementptr inbounds nuw %"class.llvm::Twine", ptr %5, i32 0, i32 2
  store i8 3, ptr %16, align 8
  br label %19

17:                                               ; preds = %2
  %18 = getelementptr inbounds nuw %"class.llvm::Twine", ptr %5, i32 0, i32 2
  store i8 1, ptr %18, align 8
  br label %19

19:                                               ; preds = %17, %13
  ret void
}

; Function Attrs: mustprogress nounwind uwtable
define linkonce_odr hidden noundef i32 @_ZN4llvm23getReductionIntrinsicIDENS_9RecurKindE(i32 noundef %0) #0 comdat {
  %2 = alloca i32, align 4
  %3 = alloca i32, align 4
  store i32 %0, ptr %3, align 4
  %4 = load i32, ptr %3, align 4
  switch i32 %4, label %5 [
    i32 1, label %6
    i32 2, label %7
    i32 4, label %8
    i32 3, label %9
    i32 5, label %10
    i32 16, label %11
    i32 10, label %11
    i32 11, label %12
    i32 7, label %13
    i32 6, label %14
    i32 9, label %15
    i32 8, label %16
    i32 13, label %17
    i32 12, label %18
    i32 15, label %19
    i32 14, label %20
  ]

5:                                                ; preds = %1
  unreachable

6:                                                ; preds = %1
  store i32 372, ptr %2, align 4
  br label %21

7:                                                ; preds = %1
  store i32 380, ptr %2, align 4
  br label %21

8:                                                ; preds = %1
  store i32 373, ptr %2, align 4
  br label %21

9:                                                ; preds = %1
  store i32 381, ptr %2, align 4
  br label %21

10:                                               ; preds = %1
  store i32 386, ptr %2, align 4
  br label %21

11:                                               ; preds = %1, %1
  store i32 374, ptr %2, align 4
  br label %21

12:                                               ; preds = %1
  store i32 379, ptr %2, align 4
  br label %21

13:                                               ; preds = %1
  store i32 382, ptr %2, align 4
  br label %21

14:                                               ; preds = %1
  store i32 383, ptr %2, align 4
  br label %21

15:                                               ; preds = %1
  store i32 384, ptr %2, align 4
  br label %21

16:                                               ; preds = %1
  store i32 385, ptr %2, align 4
  br label %21

17:                                               ; preds = %1
  store i32 375, ptr %2, align 4
  br label %21

18:                                               ; preds = %1
  store i32 377, ptr %2, align 4
  br label %21

19:                                               ; preds = %1
  store i32 376, ptr %2, align 4
  br label %21

20:                                               ; preds = %1
  store i32 378, ptr %2, align 4
  br label %21

21:                                               ; preds = %20, %19, %18, %17, %16, %15, %14, %13, %12, %11, %10, %9, %8, %7, %6
  %22 = load i32, ptr %2, align 4
  ret i32 %22
}

; Function Attrs: mustprogress nounwind uwtable
define linkonce_odr hidden noundef ptr @_ZNK4llvm10VectorType14getElementTypeEv(ptr noundef nonnull align 8 dereferenceable(36) %0) #0 comdat align 2 {
  %2 = alloca ptr, align 8
  store ptr %0, ptr %2, align 8
  %3 = load ptr, ptr %2, align 8
  %4 = getelementptr inbounds nuw %"class.llvm::VectorType", ptr %3, i32 0, i32 1
  %5 = load ptr, ptr %4, align 8
  ret ptr %5
}

; Function Attrs: mustprogress nounwind uwtable
define linkonce_odr hidden noundef ptr @_ZN4llvm4castINS_10VectorTypeENS_4TypeEEEDcPT0_(ptr noundef %0) #0 comdat {
  %2 = alloca ptr, align 8
  store ptr %0, ptr %2, align 8
  %3 = call noundef ptr @_ZN4llvm8CastInfoINS_10VectorTypeEPNS_4TypeEvE6doCastERKS3_(ptr noundef nonnull align 8 dereferenceable(8) %2)
  ret ptr %3
}

; Function Attrs: mustprogress nounwind uwtable
define linkonce_odr hidden noundef ptr @_ZNK4llvm5Value7getTypeEv(ptr noundef nonnull align 8 dereferenceable(24) %0) #0 comdat align 2 {
  %2 = alloca ptr, align 8
  store ptr %0, ptr %2, align 8
  %3 = load ptr, ptr %2, align 8
  %4 = getelementptr inbounds nuw %"class.llvm::Value", ptr %3, i32 0, i32 4
  %5 = load ptr, ptr %4, align 8
  ret ptr %5
}

; Function Attrs: mustprogress nounwind uwtable
define dso_local noundef ptr @_ZN4llvm21createSimpleReductionERNS_13IRBuilderBaseEPNS_5ValueENS_9RecurKindE(ptr noundef nonnull align 8 dereferenceable(128) %0, ptr noundef %1, i32 noundef %2) #0 {
  %4 = alloca ptr, align 8
  %5 = alloca ptr, align 8
  %6 = alloca ptr, align 8
  %7 = alloca i32, align 4
  %8 = alloca ptr, align 8
  %9 = alloca %class.anon.478, align 8
  %10 = alloca %"class.llvm::Twine", align 8
  store ptr %0, ptr %5, align 8
  store ptr %1, ptr %6, align 8
  store i32 %2, ptr %7, align 4
  %11 = load ptr, ptr %6, align 8
  %12 = call noundef ptr @_ZNK4llvm5Value7getTypeEv(ptr noundef nonnull align 8 dereferenceable(24) %11)
  %13 = call noundef ptr @_ZN4llvm4castINS_10VectorTypeENS_4TypeEEEDcPT0_(ptr noundef %12)
  %14 = call noundef ptr @_ZNK4llvm10VectorType14getElementTypeEv(ptr noundef nonnull align 8 dereferenceable(36) %13)
  store ptr %14, ptr %8, align 8
  %15 = getelementptr inbounds nuw %class.anon.478, ptr %9, i32 0, i32 0
  store ptr %7, ptr %15, align 8
  %16 = getelementptr inbounds nuw %class.anon.478, ptr %9, i32 0, i32 1
  %17 = load ptr, ptr %5, align 8
  store ptr %17, ptr %16, align 8
  %18 = getelementptr inbounds nuw %class.anon.478, ptr %9, i32 0, i32 2
  store ptr %8, ptr %18, align 8
  %19 = load i32, ptr %7, align 4
  switch i32 %19, label %36 [
    i32 1, label %20
    i32 2, label %20
    i32 4, label %20
    i32 3, label %20
    i32 5, label %20
    i32 7, label %20
    i32 6, label %20
    i32 9, label %20
    i32 8, label %20
    i32 13, label %20
    i32 12, label %20
    i32 14, label %20
    i32 15, label %20
    i32 16, label %26
    i32 10, label %26
    i32 11, label %31
  ]

20:                                               ; preds = %3, %3, %3, %3, %3, %3, %3, %3, %3, %3, %3, %3, %3
  %21 = load ptr, ptr %5, align 8
  %22 = load i32, ptr %7, align 4
  %23 = call noundef i32 @_ZN4llvm23getReductionIntrinsicIDENS_9RecurKindE(i32 noundef %22)
  %24 = load ptr, ptr %6, align 8
  call void @_ZN4llvm5TwineC2EPKc(ptr noundef nonnull align 8 dereferenceable(34) %10, ptr noundef @.str.17)
  %25 = call noundef ptr @_ZN4llvm13IRBuilderBase20CreateUnaryIntrinsicEjPNS_5ValueEPNS_11InstructionERKNS_5TwineE(ptr noundef nonnull align 8 dereferenceable(128) %21, i32 noundef %23, ptr noundef %24, ptr noundef null, ptr noundef nonnull align 8 dereferenceable(34) %10)
  store ptr %25, ptr %4, align 8
  br label %37

26:                                               ; preds = %3, %3
  %27 = load ptr, ptr %5, align 8
  %28 = call noundef ptr @"_ZZN4llvm21createSimpleReductionERNS_13IRBuilderBaseEPNS_5ValueENS_9RecurKindEENK3$_0clEv"(ptr noundef nonnull align 8 dereferenceable(24) %9)
  %29 = load ptr, ptr %6, align 8
  %30 = call noundef ptr @_ZN4llvm13IRBuilderBase16CreateFAddReduceEPNS_5ValueES2_(ptr noundef nonnull align 8 dereferenceable(128) %27, ptr noundef %28, ptr noundef %29)
  store ptr %30, ptr %4, align 8
  br label %37

31:                                               ; preds = %3
  %32 = load ptr, ptr %5, align 8
  %33 = call noundef ptr @"_ZZN4llvm21createSimpleReductionERNS_13IRBuilderBaseEPNS_5ValueENS_9RecurKindEENK3$_0clEv"(ptr noundef nonnull align 8 dereferenceable(24) %9)
  %34 = load ptr, ptr %6, align 8
  %35 = call noundef ptr @_ZN4llvm13IRBuilderBase16CreateFMulReduceEPNS_5ValueES2_(ptr noundef nonnull align 8 dereferenceable(128) %32, ptr noundef %33, ptr noundef %34)
  store ptr %35, ptr %4, align 8
  br label %37

36:                                               ; preds = %3
  unreachable

37:                                               ; preds = %31, %26, %20
  %38 = load ptr, ptr %4, align 8
  ret ptr %38
}