; Function Attrs: mustprogress nounwind uwtable
define dso_local noundef ptr @_ZN4llvm21createSimpleReductionERNS_13IRBuilderBaseEPNS_5ValueENS_9RecurKindE(ptr noundef nonnull align 8 dereferenceable(128) %0, ptr noundef %1, i32 noundef %2) local_unnamed_addr #0 {
  %4 = alloca %"class.llvm::Twine", align 8
  %5 = getelementptr inbounds nuw i8, ptr %1, i64 8
  %6 = load ptr, ptr %5, align 8
  %7 = getelementptr inbounds nuw i8, ptr %6, i64 24
  %8 = load ptr, ptr %7, align 8
  switch i32 %2, label %24 [
    i32 1, label %switch.lookup
    i32 2, label %switch.lookup
    i32 4, label %switch.lookup
    i32 3, label %switch.lookup
    i32 5, label %switch.lookup
    i32 7, label %switch.lookup
    i32 6, label %switch.lookup
    i32 9, label %switch.lookup
    i32 8, label %switch.lookup
    i32 13, label %switch.lookup
    i32 12, label %switch.lookup
    i32 14, label %switch.lookup
    i32 15, label %switch.lookup
    i32 11, label %"_ZZN4llvm21createSimpleReductionERNS_13IRBuilderBaseEPNS_5ValueENS_9RecurKindEENK3$_0clEv.exit12"
    i32 10, label %"_ZZN4llvm21createSimpleReductionERNS_13IRBuilderBaseEPNS_5ValueENS_9RecurKindEENK3$_0clEv.exit"
    i32 16, label %"_ZZN4llvm21createSimpleReductionERNS_13IRBuilderBaseEPNS_5ValueENS_9RecurKindEENK3$_0clEv.exit"
  ]

switch.lookup:                                    ; preds = %3, %3, %3, %3, %3, %3, %3, %3, %3, %3, %3, %3, %3
  %switch.tableidx = add nsw i32 %2, -1
  %9 = sext i32 %switch.tableidx to i64
  %switch.gep = getelementptr inbounds [15 x i32], ptr @switch.table._ZN4llvm21createSimpleReductionERNS_13IRBuilderBaseEPNS_5ValueENS_9RecurKindE, i64 0, i64 %9
  %switch.load = load i32, ptr %switch.gep, align 4
  %10 = getelementptr inbounds nuw i8, ptr %4, i64 32
  store i16 257, ptr %10, align 8
  %11 = call noundef ptr @_ZN4llvm13IRBuilderBase20CreateUnaryIntrinsicEjPNS_5ValueEPNS_11InstructionERKNS_5TwineE(ptr noundef nonnull align 8 dereferenceable(128) %0, i32 noundef %switch.load, ptr noundef nonnull %1, ptr noundef null, ptr noundef nonnull align 8 dereferenceable(34) %4) #17
  br label %25

"_ZZN4llvm21createSimpleReductionERNS_13IRBuilderBaseEPNS_5ValueENS_9RecurKindEENK3$_0clEv.exit": ; preds = %3, %3
  %12 = getelementptr inbounds nuw i8, ptr %0, i64 104
  %13 = load i32, ptr %12, align 8
  %14 = and i32 %13, 8
  %15 = icmp ne i32 %14, 0
  %16 = tail call noundef ptr @_ZN4llvm12ConstantExpr16getBinOpIdentityEjPNS_4TypeEbb(i32 noundef 14, ptr noundef %8, i1 noundef zeroext false, i1 noundef zeroext %15) #17
  %17 = tail call noundef ptr @_ZN4llvm13IRBuilderBase16CreateFAddReduceEPNS_5ValueES2_(ptr noundef nonnull align 8 dereferenceable(128) %0, ptr noundef %16, ptr noundef nonnull %1) #17
  br label %25

"_ZZN4llvm21createSimpleReductionERNS_13IRBuilderBaseEPNS_5ValueENS_9RecurKindEENK3$_0clEv.exit12": ; preds = %3
  %18 = getelementptr inbounds nuw i8, ptr %0, i64 104
  %19 = load i32, ptr %18, align 8
  %20 = and i32 %19, 8
  %21 = icmp ne i32 %20, 0
  %22 = tail call noundef ptr @_ZN4llvm12ConstantExpr16getBinOpIdentityEjPNS_4TypeEbb(i32 noundef 18, ptr noundef %8, i1 noundef zeroext false, i1 noundef zeroext %21) #17
  %23 = tail call noundef ptr @_ZN4llvm13IRBuilderBase16CreateFMulReduceEPNS_5ValueES2_(ptr noundef nonnull align 8 dereferenceable(128) %0, ptr noundef %22, ptr noundef nonnull %1) #17
  br label %25

24:                                               ; preds = %3
  unreachable

25:                                               ; preds = %"_ZZN4llvm21createSimpleReductionERNS_13IRBuilderBaseEPNS_5ValueENS_9RecurKindEENK3$_0clEv.exit12", %"_ZZN4llvm21createSimpleReductionERNS_13IRBuilderBaseEPNS_5ValueENS_9RecurKindEENK3$_0clEv.exit", %switch.lookup
  %.0 = phi ptr [ %23, %"_ZZN4llvm21createSimpleReductionERNS_13IRBuilderBaseEPNS_5ValueENS_9RecurKindEENK3$_0clEv.exit12" ], [ %17, %"_ZZN4llvm21createSimpleReductionERNS_13IRBuilderBaseEPNS_5ValueENS_9RecurKindEENK3$_0clEv.exit" ], [ %11, %switch.lookup ]
  ret ptr %.0
}